target datalayout = "e-m:e-p270:32:32-p271:32:32-p272:64:64-i64:64-f80:128-n8:16:32:64-S128"
target triple = "x86_64-pc-linux-gnu"

@.str = private unnamed_addr constant [5 x i8] c"%d%d\00", align 1
@.str.1 = private unnamed_addr constant [3 x i8] c"%d\00", align 1
@.str.2 = private unnamed_addr constant [4 x i8] c"%d \00", align 1
@.str.3 = private unnamed_addr constant [2 x i8] c"\0A\00", align 1

; Function Attrs: noinline nounwind uwtable
define dso_local i32 @main() #0 {
  %1 = alloca i32, align 4
  %2 = alloca i32, align 4
  %3 = alloca i32, align 4
  %4 = alloca i32, align 4
  %5 = alloca i32, align 4
  %6 = alloca i32, align 4
  %7 = alloca i32, align 4
  %8 = alloca i32, align 4
  %9 = alloca [100 x [100 x i32]], align 16
  %10 = alloca [100 x [100 x i32]], align 16
  %11 = alloca [100 x [100 x i32]], align 16
  store i32 0, i32* %1, align 4
  %12 = bitcast [100 x [100 x i32]]* %9 to i8*
  call void @llvm.memset.p0i8.i64(i8* align 16 %12, i8 0, i64 40000, i1 false)
  %13 = bitcast [100 x [100 x i32]]* %10 to i8*
  call void @llvm.memset.p0i8.i64(i8* align 16 %13, i8 0, i64 40000, i1 false)
  %14 = bitcast [100 x [100 x i32]]* %11 to i8*
  call void @llvm.memset.p0i8.i64(i8* align 16 %14, i8 0, i64 40000, i1 false)
  %15 = call i32 (i8*, ...) @__isoc99_scanf(i8* getelementptr inbounds ([5 x i8], [5 x i8]* @.str, i64 0, i64 0), i32* %6, i32* %7)
  store i32 0, i32* %4, align 4
  br label %16

16:                                               ; preds = %39, %0
  %17 = load i32, i32* %4, align 4
  %18 = load i32, i32* %6, align 4
  %19 = sub nsw i32 %18, 1
  %20 = icmp sle i32 %17, %19
  br i1 %20, label %21, label %42

21:                                               ; preds = %16
  store i32 0, i32* %3, align 4
  br label %22

22:                                               ; preds = %35, %21
  %23 = load i32, i32* %3, align 4
  %24 = load i32, i32* %7, align 4
  %25 = sub nsw i32 %24, 1
  %26 = icmp sle i32 %23, %25
  br i1 %26, label %27, label %38

27:                                               ; preds = %22
  %28 = load i32, i32* %4, align 4
  %29 = sext i32 %28 to i64
  %30 = getelementptr inbounds [100 x [100 x i32]], [100 x [100 x i32]]* %9, i64 0, i64 %29
  %31 = load i32, i32* %3, align 4
  %32 = sext i32 %31 to i64
  %33 = getelementptr inbounds [100 x i32], [100 x i32]* %30, i64 0, i64 %32
  %34 = call i32 (i8*, ...) @__isoc99_scanf(i8* getelementptr inbounds ([3 x i8], [3 x i8]* @.str.1, i64 0, i64 0), i32* %33)
  br label %35

35:                                               ; preds = %27
  %36 = load i32, i32* %3, align 4
  %37 = add nsw i32 %36, 1
  store i32 %37, i32* %3, align 4
  br label %22

38:                                               ; preds = %22
  br label %39

39:                                               ; preds = %38
  %40 = load i32, i32* %4, align 4
  %41 = add nsw i32 %40, 1
  store i32 %41, i32* %4, align 4
  br label %16

42:                                               ; preds = %16
  %43 = call i32 (i8*, ...) @__isoc99_scanf(i8* getelementptr inbounds ([5 x i8], [5 x i8]* @.str, i64 0, i64 0), i32* %7, i32* %8)
  store i32 0, i32* %4, align 4
  br label %44

44:                                               ; preds = %67, %42
  %45 = load i32, i32* %4, align 4
  %46 = load i32, i32* %7, align 4
  %47 = sub nsw i32 %46, 1
  %48 = icmp sle i32 %45, %47
  br i1 %48, label %49, label %70

49:                                               ; preds = %44
  store i32 0, i32* %3, align 4
  br label %50

50:                                               ; preds = %63, %49
  %51 = load i32, i32* %3, align 4
  %52 = load i32, i32* %8, align 4
  %53 = sub nsw i32 %52, 1
  %54 = icmp sle i32 %51, %53
  br i1 %54, label %55, label %66

55:                                               ; preds = %50
  %56 = load i32, i32* %4, align 4
  %57 = sext i32 %56 to i64
  %58 = getelementptr inbounds [100 x [100 x i32]], [100 x [100 x i32]]* %10, i64 0, i64 %57
  %59 = load i32, i32* %3, align 4
  %60 = sext i32 %59 to i64
  %61 = getelementptr inbounds [100 x i32], [100 x i32]* %58, i64 0, i64 %60
  %62 = call i32 (i8*, ...) @__isoc99_scanf(i8* getelementptr inbounds ([3 x i8], [3 x i8]* @.str.1, i64 0, i64 0), i32* %61)
  br label %63

63:                                               ; preds = %55
  %64 = load i32, i32* %3, align 4
  %65 = add nsw i32 %64, 1
  store i32 %65, i32* %3, align 4
  br label %50

66:                                               ; preds = %50
  br label %67

67:                                               ; preds = %66
  %68 = load i32, i32* %4, align 4
  %69 = add nsw i32 %68, 1
  store i32 %69, i32* %4, align 4
  br label %44

70:                                               ; preds = %44
  store i32 0, i32* %4, align 4
  br label %71

71:                                               ; preds = %126, %70
  %72 = load i32, i32* %4, align 4
  %73 = load i32, i32* %6, align 4
  %74 = sub nsw i32 %73, 1
  %75 = icmp sle i32 %72, %74
  br i1 %75, label %76, label %129

76:                                               ; preds = %71
  store i32 0, i32* %3, align 4
  br label %77

77:                                               ; preds = %122, %76
  %78 = load i32, i32* %3, align 4
  %79 = load i32, i32* %8, align 4
  %80 = sub nsw i32 %79, 1
  %81 = icmp sle i32 %78, %80
  br i1 %81, label %82, label %125

82:                                               ; preds = %77
  %83 = load i32, i32* %4, align 4
  %84 = sext i32 %83 to i64
  %85 = getelementptr inbounds [100 x [100 x i32]], [100 x [100 x i32]]* %11, i64 0, i64 %84
  %86 = load i32, i32* %3, align 4
  %87 = sext i32 %86 to i64
  %88 = getelementptr inbounds [100 x i32], [100 x i32]* %85, i64 0, i64 %87
  store i32 0, i32* %88, align 4
  store i32 0, i32* %5, align 4
  br label %89

89:                                               ; preds = %118, %82
  %90 = load i32, i32* %5, align 4
  %91 = load i32, i32* %7, align 4
  %92 = sub nsw i32 %91, 1
  %93 = icmp sle i32 %90, %92
  br i1 %93, label %94, label %121

94:                                               ; preds = %89
  %95 = load i32, i32* %4, align 4
  %96 = sext i32 %95 to i64
  %97 = getelementptr inbounds [100 x [100 x i32]], [100 x [100 x i32]]* %9, i64 0, i64 %96
  %98 = load i32, i32* %5, align 4
  %99 = sext i32 %98 to i64
  %100 = getelementptr inbounds [100 x i32], [100 x i32]* %97, i64 0, i64 %99
  %101 = load i32, i32* %100, align 4
  %102 = load i32, i32* %5, align 4
  %103 = sext i32 %102 to i64
  %104 = getelementptr inbounds [100 x [100 x i32]], [100 x [100 x i32]]* %10, i64 0, i64 %103
  %105 = load i32, i32* %3, align 4
  %106 = sext i32 %105 to i64
  %107 = getelementptr inbounds [100 x i32], [100 x i32]* %104, i64 0, i64 %106
  %108 = load i32, i32* %107, align 4
  %109 = mul nsw i32 %101, %108
  %110 = load i32, i32* %4, align 4
  %111 = sext i32 %110 to i64
  %112 = getelementptr inbounds [100 x [100 x i32]], [100 x [100 x i32]]* %11, i64 0, i64 %111
  %113 = load i32, i32* %3, align 4
  %114 = sext i32 %113 to i64
  %115 = getelementptr inbounds [100 x i32], [100 x i32]* %112, i64 0, i64 %114
  %116 = load i32, i32* %115, align 4
  %117 = add nsw i32 %116, %109
  store i32 %117, i32* %115, align 4
  br label %118

118:                                              ; preds = %94
  %119 = load i32, i32* %5, align 4
  %120 = add nsw i32 %119, 1
  store i32 %120, i32* %5, align 4
  br label %89

121:                                              ; preds = %89
  br label %122

122:                                              ; preds = %121
  %123 = load i32, i32* %3, align 4
  %124 = add nsw i32 %123, 1
  store i32 %124, i32* %3, align 4
  br label %77

125:                                              ; preds = %77
  br label %126

126:                                              ; preds = %125
  %127 = load i32, i32* %4, align 4
  %128 = add nsw i32 %127, 1
  store i32 %128, i32* %4, align 4
  br label %71

129:                                              ; preds = %71
  store i32 0, i32* %4, align 4
  br label %130

130:                                              ; preds = %170, %129
  %131 = load i32, i32* %4, align 4
  %132 = load i32, i32* %6, align 4
  %133 = sub nsw i32 %132, 1
  %134 = icmp sle i32 %131, %133
  br i1 %134, label %135, label %173

135:                                              ; preds = %130
  store i32 0, i32* %3, align 4
  br label %136

136:                                              ; preds = %165, %135
  %137 = load i32, i32* %3, align 4
  %138 = load i32, i32* %8, align 4
  %139 = sub nsw i32 %138, 1
  %140 = icmp sle i32 %137, %139
  br i1 %140, label %141, label %168

141:                                              ; preds = %136
  %142 = load i32, i32* %3, align 4
  %143 = load i32, i32* %8, align 4
  %144 = sub nsw i32 %143, 1
  %145 = icmp eq i32 %142, %144
  br i1 %145, label %146, label %155

146:                                              ; preds = %141
  %147 = load i32, i32* %4, align 4
  %148 = sext i32 %147 to i64
  %149 = getelementptr inbounds [100 x [100 x i32]], [100 x [100 x i32]]* %11, i64 0, i64 %148
  %150 = load i32, i32* %3, align 4
  %151 = sext i32 %150 to i64
  %152 = getelementptr inbounds [100 x i32], [100 x i32]* %149, i64 0, i64 %151
  %153 = load i32, i32* %152, align 4
  %154 = call i32 (i8*, ...) @printf(i8* getelementptr inbounds ([3 x i8], [3 x i8]* @.str.1, i64 0, i64 0), i32 %153)
  br label %164

155:                                              ; preds = %141
  %156 = load i32, i32* %4, align 4
  %157 = sext i32 %156 to i64
  %158 = getelementptr inbounds [100 x [100 x i32]], [100 x [100 x i32]]* %11, i64 0, i64 %157
  %159 = load i32, i32* %3, align 4
  %160 = sext i32 %159 to i64
  %161 = getelementptr inbounds [100 x i32], [100 x i32]* %158, i64 0, i64 %160
  %162 = load i32, i32* %161, align 4
  %163 = call i32 (i8*, ...) @printf(i8* getelementptr inbounds ([4 x i8], [4 x i8]* @.str.2, i64 0, i64 0), i32 %162)
  br label %164

164:                                              ; preds = %155, %146
  br label %165

165:                                              ; preds = %164
  %166 = load i32, i32* %3, align 4
  %167 = add nsw i32 %166, 1
  store i32 %167, i32* %3, align 4
  br label %136

168:                                              ; preds = %136
  %169 = call i32 (i8*, ...) @printf(i8* getelementptr inbounds ([2 x i8], [2 x i8]* @.str.3, i64 0, i64 0))
  br label %170

170:                                              ; preds = %168
  %171 = load i32, i32* %4, align 4
  %172 = add nsw i32 %171, 1
  store i32 %172, i32* %4, align 4
  br label %130

173:                                              ; preds = %130
  %174 = call i32 @getchar()
  %175 = call i32 @getchar()
  %176 = call i32 @getchar()
  %177 = call i32 @getchar()
  %178 = call i32 @getchar()
  %179 = call i32 @getchar()
  %180 = load i32, i32* %1, align 4
  ret i32 %180
}