; Function Attrs: nofree nounwind sspstrong uwtable
define dso_local i32 @main() local_unnamed_addr #0 {
  %1 = alloca i32, align 4
  %2 = alloca i32, align 4
  %3 = alloca i32, align 4
  %4 = alloca [100 x [100 x i32]], align 16
  %5 = alloca [100 x [100 x i32]], align 16
  %6 = alloca [100 x [100 x i32]], align 16
  %7 = bitcast i32* %1 to i8*
  call void @llvm.lifetime.start.p0i8(i64 4, i8* nonnull %7) #5
  %8 = bitcast i32* %2 to i8*
  call void @llvm.lifetime.start.p0i8(i64 4, i8* nonnull %8) #5
  %9 = bitcast i32* %3 to i8*
  call void @llvm.lifetime.start.p0i8(i64 4, i8* nonnull %9) #5
  %10 = bitcast [100 x [100 x i32]]* %4 to i8*
  call void @llvm.lifetime.start.p0i8(i64 40000, i8* nonnull %10) #5
  call void @llvm.memset.p0i8.i64(i8* noundef nonnull align 16 dereferenceable(40000) %10, i8 0, i64 40000, i1 false)
  %11 = bitcast [100 x [100 x i32]]* %5 to i8*
  call void @llvm.lifetime.start.p0i8(i64 40000, i8* nonnull %11) #5
  call void @llvm.memset.p0i8.i64(i8* noundef nonnull align 16 dereferenceable(40000) %11, i8 0, i64 40000, i1 false)
  %12 = bitcast [100 x [100 x i32]]* %6 to i8*
  call void @llvm.lifetime.start.p0i8(i64 40000, i8* nonnull %12) #5
  call void @llvm.memset.p0i8.i64(i8* noundef nonnull align 16 dereferenceable(40000) %12, i8 0, i64 40000, i1 false)
  %13 = call i32 (i8*, ...) @__isoc99_scanf(i8* getelementptr inbounds ([5 x i8], [5 x i8]* @.str, i64 0, i64 0), i32* nonnull %1, i32* nonnull %2)
  %14 = load i32, i32* %1, align 4, !tbaa !5
  %15 = icmp sgt i32 %14, 0
  %16 = load i32, i32* %2, align 4
  %17 = icmp sgt i32 %16, 0
  %18 = select i1 %15, i1 %17, i1 false
  br i1 %18, label %19, label %40

19:                                               ; preds = %0, %34
  %20 = phi i32 [ %35, %34 ], [ %14, %0 ]
  %21 = phi i32 [ %36, %34 ], [ %16, %0 ]
  %22 = phi i64 [ %37, %34 ], [ 0, %0 ]
  %23 = icmp sgt i32 %21, 0
  br i1 %23, label %24, label %34

24:                                               ; preds = %19, %24
  %25 = phi i64 [ %28, %24 ], [ 0, %19 ]
  %26 = getelementptr inbounds [100 x [100 x i32]], [100 x [100 x i32]]* %4, i64 0, i64 %22, i64 %25
  %27 = call i32 (i8*, ...) @__isoc99_scanf(i8* getelementptr inbounds ([3 x i8], [3 x i8]* @.str.1, i64 0, i64 0), i32* nonnull %26)
  %28 = add nuw nsw i64 %25, 1
  %29 = load i32, i32* %2, align 4, !tbaa !5
  %30 = sext i32 %29 to i64
  %31 = icmp slt i64 %28, %30
  br i1 %31, label %24, label %32, !llvm.loop !9

32:                                               ; preds = %24
  %33 = load i32, i32* %1, align 4, !tbaa !5
  br label %34

34:                                               ; preds = %32, %19
  %35 = phi i32 [ %33, %32 ], [ %20, %19 ]
  %36 = phi i32 [ %29, %32 ], [ %21, %19 ]
  %37 = add nuw nsw i64 %22, 1
  %38 = sext i32 %35 to i64
  %39 = icmp slt i64 %37, %38
  br i1 %39, label %19, label %40, !llvm.loop !11

40:                                               ; preds = %34, %0
  %41 = call i32 (i8*, ...) @__isoc99_scanf(i8* getelementptr inbounds ([5 x i8], [5 x i8]* @.str, i64 0, i64 0), i32* nonnull %2, i32* nonnull %3)
  %42 = load i32, i32* %2, align 4, !tbaa !5
  %43 = icmp sgt i32 %42, 0
  %44 = load i32, i32* %3, align 4
  %45 = icmp sgt i32 %44, 0
  %46 = select i1 %43, i1 %45, i1 false
  br i1 %46, label %47, label %52

47:                                               ; preds = %40, %160
  %48 = phi i32 [ %161, %160 ], [ %42, %40 ]
  %49 = phi i32 [ %162, %160 ], [ %44, %40 ]
  %50 = phi i64 [ %163, %160 ], [ 0, %40 ]
  %51 = icmp sgt i32 %49, 0
  br i1 %51, label %150, label %160

52:                                               ; preds = %160, %40
  %53 = phi i32 [ %44, %40 ], [ %162, %160 ]
  %54 = phi i32 [ %42, %40 ], [ %161, %160 ]
  %55 = load i32, i32* %1, align 4, !tbaa !5
  %56 = icmp sgt i32 %54, 0
  %57 = icmp sgt i32 %55, 0
  br i1 %57, label %58, label %205

58:                                               ; preds = %52
  %59 = icmp sgt i32 %53, 0
  br i1 %59, label %60, label %178

60:                                               ; preds = %58
  br i1 %56, label %70, label %61

61:                                               ; preds = %60
  %62 = zext i32 %53 to i64
  %63 = shl nuw nsw i64 %62, 2
  %64 = zext i32 %55 to i64
  %65 = add nsw i64 %64, -1
  %66 = and i64 %64, 7
  %67 = icmp ult i64 %65, 7
  br i1 %67, label %166, label %68

68:                                               ; preds = %61
  %69 = and i64 %64, 4294967288
  br label %121

70:                                               ; preds = %60
  %71 = zext i32 %55 to i64
  %72 = zext i32 %53 to i64
  %73 = zext i32 %54 to i64
  %74 = and i64 %73, 1
  %75 = icmp eq i32 %54, 1
  %76 = and i64 %73, 4294967294
  %77 = icmp eq i64 %74, 0
  br label %78

78:                                               ; preds = %70, %118
  %79 = phi i64 [ 0, %70 ], [ %119, %118 ]
  br label %80

80:                                               ; preds = %114, %78
  %81 = phi i64 [ %116, %114 ], [ 0, %78 ]
  %82 = getelementptr inbounds [100 x [100 x i32]], [100 x [100 x i32]]* %6, i64 0, i64 %79, i64 %81
  br i1 %75, label %103, label %83

83:                                               ; preds = %80, %83
  %84 = phi i64 [ %100, %83 ], [ 0, %80 ]
  %85 = phi i32 [ %99, %83 ], [ 0, %80 ]
  %86 = phi i64 [ %101, %83 ], [ %76, %80 ]
  %87 = getelementptr inbounds [100 x [100 x i32]], [100 x [100 x i32]]* %4, i64 0, i64 %79, i64 %84
  %88 = load i32, i32* %87, align 8, !tbaa !5
  %89 = getelementptr inbounds [100 x [100 x i32]], [100 x [100 x i32]]* %5, i64 0, i64 %84, i64 %81
  %90 = load i32, i32* %89, align 4, !tbaa !5
  %91 = mul nsw i32 %90, %88
  %92 = add nsw i32 %85, %91
  %93 = or i64 %84, 1
  %94 = getelementptr inbounds [100 x [100 x i32]], [100 x [100 x i32]]* %4, i64 0, i64 %79, i64 %93
  %95 = load i32, i32* %94, align 4, !tbaa !5
  %96 = getelementptr inbounds [100 x [100 x i32]], [100 x [100 x i32]]* %5, i64 0, i64 %93, i64 %81
  %97 = load i32, i32* %96, align 4, !tbaa !5
  %98 = mul nsw i32 %97, %95
  %99 = add nsw i32 %92, %98
  %100 = add nuw nsw i64 %84, 2
  %101 = add i64 %86, -2
  %102 = icmp eq i64 %101, 0
  br i1 %102, label %103, label %83, !llvm.loop !13

103:                                              ; preds = %83, %80
  %104 = phi i32 [ undef, %80 ], [ %99, %83 ]
  %105 = phi i64 [ 0, %80 ], [ %100, %83 ]
  %106 = phi i32 [ 0, %80 ], [ %99, %83 ]
  br i1 %77, label %114, label %107

107:                                              ; preds = %103
  %108 = getelementptr inbounds [100 x [100 x i32]], [100 x [100 x i32]]* %5, i64 0, i64 %105, i64 %81
  %109 = load i32, i32* %108, align 4, !tbaa !5
  %110 = getelementptr inbounds [100 x [100 x i32]], [100 x [100 x i32]]* %4, i64 0, i64 %79, i64 %105
  %111 = load i32, i32* %110, align 4, !tbaa !5
  %112 = mul nsw i32 %109, %111
  %113 = add nsw i32 %106, %112
  br label %114

114:                                              ; preds = %103, %107
  %115 = phi i32 [ %104, %103 ], [ %113, %107 ]
  store i32 %115, i32* %82, align 4, !tbaa !5
  %116 = add nuw nsw i64 %81, 1
  %117 = icmp eq i64 %116, %72
  br i1 %117, label %118, label %80, !llvm.loop !14

118:                                              ; preds = %114
  %119 = add nuw nsw i64 %79, 1
  %120 = icmp eq i64 %119, %71
  br i1 %120, label %177, label %78, !llvm.loop !15

121:                                              ; preds = %121, %68
  %122 = phi i64 [ 0, %68 ], [ %147, %121 ]
  %123 = phi i64 [ %69, %68 ], [ %148, %121 ]
  %124 = getelementptr [100 x [100 x i32]], [100 x [100 x i32]]* %6, i64 0, i64 %122, i64 0
  %125 = bitcast i32* %124 to i8*
  call void @llvm.memset.p0i8.i64(i8* align 16 %125, i8 0, i64 %63, i1 false)
  %126 = or i64 %122, 1
  %127 = getelementptr [100 x [100 x i32]], [100 x [100 x i32]]* %6, i64 0, i64 %126, i64 0
  %128 = bitcast i32* %127 to i8*
  call void @llvm.memset.p0i8.i64(i8* align 16 %128, i8 0, i64 %63, i1 false)
  %129 = or i64 %122, 2
  %130 = getelementptr [100 x [100 x i32]], [100 x [100 x i32]]* %6, i64 0, i64 %129, i64 0
  %131 = bitcast i32* %130 to i8*
  call void @llvm.memset.p0i8.i64(i8* align 16 %131, i8 0, i64 %63, i1 false)
  %132 = or i64 %122, 3
  %133 = getelementptr [100 x [100 x i32]], [100 x [100 x i32]]* %6, i64 0, i64 %132, i64 0
  %134 = bitcast i32* %133 to i8*
  call void @llvm.memset.p0i8.i64(i8* align 16 %134, i8 0, i64 %63, i1 false)
  %135 = or i64 %122, 4
  %136 = getelementptr [100 x [100 x i32]], [100 x [100 x i32]]* %6, i64 0, i64 %135, i64 0
  %137 = bitcast i32* %136 to i8*
  call void @llvm.memset.p0i8.i64(i8* align 16 %137, i8 0, i64 %63, i1 false)
  %138 = or i64 %122, 5
  %139 = getelementptr [100 x [100 x i32]], [100 x [100 x i32]]* %6, i64 0, i64 %138, i64 0
  %140 = bitcast i32* %139 to i8*
  call void @llvm.memset.p0i8.i64(i8* align 16 %140, i8 0, i64 %63, i1 false)
  %141 = or i64 %122, 6
  %142 = getelementptr [100 x [100 x i32]], [100 x [100 x i32]]* %6, i64 0, i64 %141, i64 0
  %143 = bitcast i32* %142 to i8*
  call void @llvm.memset.p0i8.i64(i8* align 16 %143, i8 0, i64 %63, i1 false)
  %144 = or i64 %122, 7
  %145 = getelementptr [100 x [100 x i32]], [100 x [100 x i32]]* %6, i64 0, i64 %144, i64 0
  %146 = bitcast i32* %145 to i8*
  call void @llvm.memset.p0i8.i64(i8* align 16 %146, i8 0, i64 %63, i1 false)
  %147 = add nuw nsw i64 %122, 8
  %148 = add i64 %123, -8
  %149 = icmp eq i64 %148, 0
  br i1 %149, label %166, label %121, !llvm.loop !15

150:                                              ; preds = %47, %150
  %151 = phi i64 [ %154, %150 ], [ 0, %47 ]
  %152 = getelementptr inbounds [100 x [100 x i32]], [100 x [100 x i32]]* %5, i64 0, i64 %50, i64 %151
  %153 = call i32 (i8*, ...) @__isoc99_scanf(i8* getelementptr inbounds ([3 x i8], [3 x i8]* @.str.1, i64 0, i64 0), i32* nonnull %152)
  %154 = add nuw nsw i64 %151, 1
  %155 = load i32, i32* %3, align 4, !tbaa !5
  %156 = sext i32 %155 to i64
  %157 = icmp slt i64 %154, %156
  br i1 %157, label %150, label %158, !llvm.loop !16

158:                                              ; preds = %150
  %159 = load i32, i32* %2, align 4, !tbaa !5
  br label %160

160:                                              ; preds = %158, %47
  %161 = phi i32 [ %159, %158 ], [ %48, %47 ]
  %162 = phi i32 [ %155, %158 ], [ %49, %47 ]
  %163 = add nuw nsw i64 %50, 1
  %164 = sext i32 %161 to i64
  %165 = icmp slt i64 %163, %164
  br i1 %165, label %47, label %52, !llvm.loop !17

166:                                              ; preds = %121, %61
  %167 = phi i64 [ 0, %61 ], [ %147, %121 ]
  %168 = icmp eq i64 %66, 0
  br i1 %168, label %177, label %169

169:                                              ; preds = %166, %169
  %170 = phi i64 [ %174, %169 ], [ %167, %166 ]
  %171 = phi i64 [ %175, %169 ], [ %66, %166 ]
  %172 = getelementptr [100 x [100 x i32]], [100 x [100 x i32]]* %6, i64 0, i64 %170, i64 0
  %173 = bitcast i32* %172 to i8*
  call void @llvm.memset.p0i8.i64(i8* align 16 %173, i8 0, i64 %63, i1 false)
  %174 = add nuw nsw i64 %170, 1
  %175 = add i64 %171, -1
  %176 = icmp eq i64 %175, 0
  br i1 %176, label %177, label %169, !llvm.loop !18

177:                                              ; preds = %166, %169, %118
  br i1 %57, label %178, label %205

178:                                              ; preds = %58, %177
  br label %179

179:                                              ; preds = %178, %203
  %180 = phi i32 [ %204, %203 ], [ %53, %178 ]
  %181 = phi i64 [ %199, %203 ], [ 0, %178 ]
  %182 = icmp sgt i32 %180, 0
  br i1 %182, label %183, label %197

183:                                              ; preds = %179, %183
  %184 = phi i64 [ %193, %183 ], [ 0, %179 ]
  %185 = phi i32 [ %194, %183 ], [ %180, %179 ]
  %186 = add nsw i32 %185, -1
  %187 = zext i32 %186 to i64
  %188 = icmp eq i64 %184, %187
  %189 = getelementptr inbounds [100 x [100 x i32]], [100 x [100 x i32]]* %6, i64 0, i64 %181, i64 %184
  %190 = load i32, i32* %189, align 4, !tbaa !5
  %191 = select i1 %188, i8* getelementptr inbounds ([3 x i8], [3 x i8]* @.str.1, i64 0, i64 0), i8* getelementptr inbounds ([4 x i8], [4 x i8]* @.str.2, i64 0, i64 0)
  %192 = call i32 (i8*, ...) @printf(i8* nonnull dereferenceable(1) %191, i32 %190)
  %193 = add nuw nsw i64 %184, 1
  %194 = load i32, i32* %3, align 4, !tbaa !5
  %195 = sext i32 %194 to i64
  %196 = icmp slt i64 %193, %195
  br i1 %196, label %183, label %197, !llvm.loop !20

197:                                              ; preds = %183, %179
  %198 = call i32 @putchar(i32 10)
  %199 = add nuw nsw i64 %181, 1
  %200 = load i32, i32* %1, align 4, !tbaa !5
  %201 = sext i32 %200 to i64
  %202 = icmp slt i64 %199, %201
  br i1 %202, label %203, label %205, !llvm.loop !21

203:                                              ; preds = %197
  %204 = load i32, i32* %3, align 4, !tbaa !5
  br label %179

205:                                              ; preds = %197, %52, %177
  %206 = load %struct._IO_FILE*, %struct._IO_FILE** @stdin, align 8, !tbaa !22
  %207 = call i32 @getc(%struct._IO_FILE* %206) #5
  %208 = load %struct._IO_FILE*, %struct._IO_FILE** @stdin, align 8, !tbaa !22
  %209 = call i32 @getc(%struct._IO_FILE* %208) #5
  %210 = load %struct._IO_FILE*, %struct._IO_FILE** @stdin, align 8, !tbaa !22
  %211 = call i32 @getc(%struct._IO_FILE* %210) #5
  %212 = load %struct._IO_FILE*, %struct._IO_FILE** @stdin, align 8, !tbaa !22
  %213 = call i32 @getc(%struct._IO_FILE* %212) #5
  %214 = load %struct._IO_FILE*, %struct._IO_FILE** @stdin, align 8, !tbaa !22
  %215 = call i32 @getc(%struct._IO_FILE* %214) #5
  %216 = load %struct._IO_FILE*, %struct._IO_FILE** @stdin, align 8, !tbaa !22
  %217 = call i32 @getc(%struct._IO_FILE* %216) #5
  call void @llvm.lifetime.end.p0i8(i64 40000, i8* nonnull %12) #5
  call void @llvm.lifetime.end.p0i8(i64 40000, i8* nonnull %11) #5
  call void @llvm.lifetime.end.p0i8(i64 40000, i8* nonnull %10) #5
  call void @llvm.lifetime.end.p0i8(i64 4, i8* nonnull %9) #5
  call void @llvm.lifetime.end.p0i8(i64 4, i8* nonnull %8) #5
  call void @llvm.lifetime.end.p0i8(i64 4, i8* nonnull %7) #5
  ret i32 0
}